target datalayout = "e-m:e-p270:32:32-p271:32:32-p272:64:64-i64:64-i128:128-f80:128-n8:16:32:64-S128"
target triple = "x86_64-pc-linux-gnu"

%struct.xcgroup_t = type { ptr, ptr, ptr, i32, i32, i32 }

@int_cg = internal global [9 x %struct.xcgroup_t] zeroinitializer, align 16
@.str.28 = private unnamed_addr constant [14 x i8] c"cgroup.freeze\00", align 1
@.str.29 = private unnamed_addr constant [2 x i8] c"1\00", align 1

; Function Attrs: nounwind uwtable
define dso_local i32 @cgroup_p_step_suspend() #0 {
  %1 = alloca i32, align 4
  %2 = load ptr, ptr getelementptr inbounds nuw (%struct.xcgroup_t, ptr getelementptr inbounds ([9 x %struct.xcgroup_t], ptr @int_cg, i64 0, i64 6), i32 0, i32 2), align 16
  %3 = icmp ne ptr %2, null
  br i1 %3, label %5, label %4

4:                                                ; preds = %0
  store i32 0, ptr %1, align 4
  br label %7

5:                                                ; preds = %0
  %6 = call i32 @common_cgroup_set_param(ptr noundef getelementptr inbounds ([9 x %struct.xcgroup_t], ptr @int_cg, i64 0, i64 6), ptr noundef @.str.28, ptr noundef @.str.29)
  store i32 %6, ptr %1, align 4
  br label %7

7:                                                ; preds = %5, %4
  %8 = load i32, ptr %1, align 4
  ret i32 %8
}